target datalayout = "e-m:e-p270:32:32-p271:32:32-p272:64:64-i64:64-i128:128-f80:128-n8:16:32:64-S128"
target triple = "x86_64-pc-linux-gnu"

%"class.std::__cxx11::basic_string" = type { %"struct.std::__cxx11::basic_string<char>::_Alloc_hider", i64, %union.anon }
%"struct.std::__cxx11::basic_string<char>::_Alloc_hider" = type { ptr }
%union.anon = type { i64, [8 x i8] }
%"struct.pxrInternal_v0_24__pxrReserved__::Tf_MallocTagStringMatchTable::_MatchString" = type <{ %"class.std::__cxx11::basic_string", i8, i8, [6 x i8] }>

; Function Attrs: mustprogress uwtable
define void @_ZN32pxrInternal_v0_24__pxrReserved__28Tf_MallocTagStringMatchTable12_MatchStringC2ERKNSt7__cxx1112basic_stringIcSt11char_traitsIcESaIcEEE(ptr noundef nonnull align 8 dereferenceable(34) %0, ptr noundef nonnull align 8 dereferenceable(32) %1) unnamed_addr #0 align 2 personality ptr @__gxx_personality_v0 {
  %3 = alloca ptr, align 8
  %4 = alloca ptr, align 8
  %5 = alloca ptr, align 8
  %6 = alloca i32, align 4
  store ptr %0, ptr %3, align 8
  store ptr %1, ptr %4, align 8
  %7 = load ptr, ptr %3, align 8
  %8 = getelementptr inbounds nuw %"struct.pxrInternal_v0_24__pxrReserved__::Tf_MallocTagStringMatchTable::_MatchString", ptr %7, i32 0, i32 0
  %9 = load ptr, ptr %4, align 8
  call void @_ZNSt7__cxx1112basic_stringIcSt11char_traitsIcESaIcEEC1ERKS4_(ptr noundef nonnull align 8 dereferenceable(32) %8, ptr noundef nonnull align 8 dereferenceable(32) %9)
  %10 = getelementptr inbounds nuw %"struct.pxrInternal_v0_24__pxrReserved__::Tf_MallocTagStringMatchTable::_MatchString", ptr %7, i32 0, i32 1
  store i8 1, ptr %10, align 8
  %11 = getelementptr inbounds nuw %"struct.pxrInternal_v0_24__pxrReserved__::Tf_MallocTagStringMatchTable::_MatchString", ptr %7, i32 0, i32 2
  store i8 0, ptr %11, align 1
  %12 = getelementptr inbounds nuw %"struct.pxrInternal_v0_24__pxrReserved__::Tf_MallocTagStringMatchTable::_MatchString", ptr %7, i32 0, i32 0
  %13 = call noundef zeroext i1 @_ZNKSt7__cxx1112basic_stringIcSt11char_traitsIcESaIcEE5emptyEv(ptr noundef nonnull align 8 dereferenceable(32) %12) #6
  br i1 %13, label %64, label %14

14:                                               ; preds = %2
  %15 = getelementptr inbounds nuw %"struct.pxrInternal_v0_24__pxrReserved__::Tf_MallocTagStringMatchTable::_MatchString", ptr %7, i32 0, i32 0
  %16 = getelementptr inbounds nuw %"struct.pxrInternal_v0_24__pxrReserved__::Tf_MallocTagStringMatchTable::_MatchString", ptr %7, i32 0, i32 0
  %17 = call noundef i64 @_ZNKSt7__cxx1112basic_stringIcSt11char_traitsIcESaIcEE4sizeEv(ptr noundef nonnull align 8 dereferenceable(32) %16) #6
  %18 = sub i64 %17, 1
  %19 = invoke noundef nonnull align 1 dereferenceable(1) ptr @_ZNSt7__cxx1112basic_stringIcSt11char_traitsIcESaIcEEixEm(ptr noundef nonnull align 8 dereferenceable(32) %15, i64 noundef %18)
          to label %20 unwind label %31

20:                                               ; preds = %14
  %21 = load i8, ptr %19, align 1
  %22 = sext i8 %21 to i32
  %23 = icmp eq i32 %22, 42
  br i1 %23, label %24, label %35

24:                                               ; preds = %20
  %25 = getelementptr inbounds nuw %"struct.pxrInternal_v0_24__pxrReserved__::Tf_MallocTagStringMatchTable::_MatchString", ptr %7, i32 0, i32 2
  store i8 1, ptr %25, align 1
  %26 = getelementptr inbounds nuw %"struct.pxrInternal_v0_24__pxrReserved__::Tf_MallocTagStringMatchTable::_MatchString", ptr %7, i32 0, i32 0
  %27 = getelementptr inbounds nuw %"struct.pxrInternal_v0_24__pxrReserved__::Tf_MallocTagStringMatchTable::_MatchString", ptr %7, i32 0, i32 0
  %28 = call noundef i64 @_ZNKSt7__cxx1112basic_stringIcSt11char_traitsIcESaIcEE4sizeEv(ptr noundef nonnull align 8 dereferenceable(32) %27) #6
  %29 = sub i64 %28, 1
  invoke void @_ZNSt7__cxx1112basic_stringIcSt11char_traitsIcESaIcEE6resizeEm(ptr noundef nonnull align 8 dereferenceable(32) %26, i64 noundef %29)
          to label %30 unwind label %31

30:                                               ; preds = %24
  br label %35

31:                                               ; preds = %57, %50, %45, %38, %24, %14
  %32 = landingpad { ptr, i32 }
          cleanup
  %33 = extractvalue { ptr, i32 } %32, 0
  store ptr %33, ptr %5, align 8
  %34 = extractvalue { ptr, i32 } %32, 1
  store i32 %34, ptr %6, align 4
  call void @_ZNSt7__cxx1112basic_stringIcSt11char_traitsIcESaIcEED1Ev(ptr noundef nonnull align 8 dereferenceable(32) %8) #6
  br label %65

35:                                               ; preds = %30, %20
  %36 = getelementptr inbounds nuw %"struct.pxrInternal_v0_24__pxrReserved__::Tf_MallocTagStringMatchTable::_MatchString", ptr %7, i32 0, i32 0
  %37 = call noundef zeroext i1 @_ZNKSt7__cxx1112basic_stringIcSt11char_traitsIcESaIcEE5emptyEv(ptr noundef nonnull align 8 dereferenceable(32) %36) #6
  br i1 %37, label %63, label %38

38:                                               ; preds = %35
  %39 = getelementptr inbounds nuw %"struct.pxrInternal_v0_24__pxrReserved__::Tf_MallocTagStringMatchTable::_MatchString", ptr %7, i32 0, i32 0
  %40 = invoke noundef nonnull align 1 dereferenceable(1) ptr @_ZNSt7__cxx1112basic_stringIcSt11char_traitsIcESaIcEEixEm(ptr noundef nonnull align 8 dereferenceable(32) %39, i64 noundef 0)
          to label %41 unwind label %31

41:                                               ; preds = %38
  %42 = load i8, ptr %40, align 1
  %43 = sext i8 %42 to i32
  %44 = icmp eq i32 %43, 45
  br i1 %44, label %45, label %50

45:                                               ; preds = %41
  %46 = getelementptr inbounds nuw %"struct.pxrInternal_v0_24__pxrReserved__::Tf_MallocTagStringMatchTable::_MatchString", ptr %7, i32 0, i32 1
  store i8 0, ptr %46, align 8
  %47 = getelementptr inbounds nuw %"struct.pxrInternal_v0_24__pxrReserved__::Tf_MallocTagStringMatchTable::_MatchString", ptr %7, i32 0, i32 0
  %48 = invoke noundef nonnull align 8 dereferenceable(32) ptr @_ZNSt7__cxx1112basic_stringIcSt11char_traitsIcESaIcEE5eraseEmm(ptr noundef nonnull align 8 dereferenceable(32) %47, i64 noundef 0, i64 noundef 1)
          to label %49 unwind label %31

49:                                               ; preds = %45
  br label %62

50:                                               ; preds = %41
  %51 = getelementptr inbounds nuw %"struct.pxrInternal_v0_24__pxrReserved__::Tf_MallocTagStringMatchTable::_MatchString", ptr %7, i32 0, i32 0
  %52 = invoke noundef nonnull align 1 dereferenceable(1) ptr @_ZNSt7__cxx1112basic_stringIcSt11char_traitsIcESaIcEEixEm(ptr noundef nonnull align 8 dereferenceable(32) %51, i64 noundef 0)
          to label %53 unwind label %31

53:                                               ; preds = %50
  %54 = load i8, ptr %52, align 1
  %55 = sext i8 %54 to i32
  %56 = icmp eq i32 %55, 43
  br i1 %56, label %57, label %61

57:                                               ; preds = %53
  %58 = getelementptr inbounds nuw %"struct.pxrInternal_v0_24__pxrReserved__::Tf_MallocTagStringMatchTable::_MatchString", ptr %7, i32 0, i32 0
  %59 = invoke noundef nonnull align 8 dereferenceable(32) ptr @_ZNSt7__cxx1112basic_stringIcSt11char_traitsIcESaIcEE5eraseEmm(ptr noundef nonnull align 8 dereferenceable(32) %58, i64 noundef 0, i64 noundef 1)
          to label %60 unwind label %31

60:                                               ; preds = %57
  br label %61

61:                                               ; preds = %60, %53
  br label %62

62:                                               ; preds = %61, %49
  br label %63

63:                                               ; preds = %62, %35
  br label %64

64:                                               ; preds = %63, %2
  ret void

65:                                               ; preds = %31
  %66 = load ptr, ptr %5, align 8
  %67 = load i32, ptr %6, align 4
  %68 = insertvalue { ptr, i32 } poison, ptr %66, 0
  %69 = insertvalue { ptr, i32 } %68, i32 %67, 1
  resume { ptr, i32 } %69
}