; Function Attrs: mustprogress uwtable
define void @_ZN32pxrInternal_v0_24__pxrReserved__28Tf_MallocTagStringMatchTable12_MatchStringC2ERKNSt7__cxx1112basic_stringIcSt11char_traitsIcESaIcEEE(ptr noundef nonnull align 8 dereferenceable(34) %0, ptr noundef nonnull align 8 dereferenceable(32) %1) unnamed_addr #0 align 2 personality ptr @__gxx_personality_v0 {
  tail call void @_ZNSt7__cxx1112basic_stringIcSt11char_traitsIcESaIcEEC1ERKS4_(ptr noundef nonnull align 8 dereferenceable(32) %0, ptr noundef nonnull align 8 dereferenceable(32) %1)
  %3 = getelementptr inbounds nuw i8, ptr %0, i64 32
  store i8 1, ptr %3, align 8
  %4 = getelementptr inbounds nuw i8, ptr %0, i64 33
  store i8 0, ptr %4, align 1
  %5 = tail call noundef zeroext i1 @_ZNKSt7__cxx1112basic_stringIcSt11char_traitsIcESaIcEE5emptyEv(ptr noundef nonnull align 8 dereferenceable(32) %0) #17
  br i1 %5, label %32, label %6

6:                                                ; preds = %2
  %7 = tail call noundef i64 @_ZNKSt7__cxx1112basic_stringIcSt11char_traitsIcESaIcEE4sizeEv(ptr noundef nonnull align 8 dereferenceable(32) %0) #17
  %8 = add i64 %7, -1
  %9 = invoke noundef nonnull align 1 dereferenceable(1) ptr @_ZNSt7__cxx1112basic_stringIcSt11char_traitsIcESaIcEEixEm(ptr noundef nonnull align 8 dereferenceable(32) %0, i64 noundef %8)
          to label %10 unwind label %16

10:                                               ; preds = %6
  %11 = load i8, ptr %9, align 1
  %12 = icmp eq i8 %11, 42
  br i1 %12, label %13, label %18

13:                                               ; preds = %10
  store i8 1, ptr %4, align 1
  %14 = tail call noundef i64 @_ZNKSt7__cxx1112basic_stringIcSt11char_traitsIcESaIcEE4sizeEv(ptr noundef nonnull align 8 dereferenceable(32) %0) #17
  %15 = add i64 %14, -1
  invoke void @_ZNSt7__cxx1112basic_stringIcSt11char_traitsIcESaIcEE6resizeEm(ptr noundef nonnull align 8 dereferenceable(32) %0, i64 noundef %15)
          to label %18 unwind label %16

16:                                               ; preds = %.invoke, %26, %20, %13, %6
  %17 = landingpad { ptr, i32 }
          cleanup
  tail call void @_ZNSt7__cxx1112basic_stringIcSt11char_traitsIcESaIcEED1Ev(ptr noundef nonnull align 8 dereferenceable(32) %0) #17
  resume { ptr, i32 } %17

18:                                               ; preds = %13, %10
  %19 = tail call noundef zeroext i1 @_ZNKSt7__cxx1112basic_stringIcSt11char_traitsIcESaIcEE5emptyEv(ptr noundef nonnull align 8 dereferenceable(32) %0) #17
  br i1 %19, label %32, label %20

20:                                               ; preds = %18
  %21 = invoke noundef nonnull align 1 dereferenceable(1) ptr @_ZNSt7__cxx1112basic_stringIcSt11char_traitsIcESaIcEEixEm(ptr noundef nonnull align 8 dereferenceable(32) %0, i64 noundef 0)
          to label %22 unwind label %16

22:                                               ; preds = %20
  %23 = load i8, ptr %21, align 1
  %24 = icmp eq i8 %23, 45
  br i1 %24, label %25, label %26

25:                                               ; preds = %22
  store i8 0, ptr %3, align 8
  br label %.invoke

26:                                               ; preds = %22
  %27 = invoke noundef nonnull align 1 dereferenceable(1) ptr @_ZNSt7__cxx1112basic_stringIcSt11char_traitsIcESaIcEEixEm(ptr noundef nonnull align 8 dereferenceable(32) %0, i64 noundef 0)
          to label %28 unwind label %16

28:                                               ; preds = %26
  %29 = load i8, ptr %27, align 1
  %30 = icmp eq i8 %29, 43
  br i1 %30, label %.invoke, label %32

.invoke:                                          ; preds = %28, %25
  %31 = invoke noundef nonnull align 8 dereferenceable(32) ptr @_ZNSt7__cxx1112basic_stringIcSt11char_traitsIcESaIcEE5eraseEmm(ptr noundef nonnull align 8 dereferenceable(32) %0, i64 noundef 0, i64 noundef 1)
          to label %32 unwind label %16

32:                                               ; preds = %.invoke, %18, %28, %2
  ret void
}